target datalayout = "e-m:e-p270:32:32-p271:32:32-p272:64:64-i64:64-i128:128-f80:128-n8:16:32:64-S128"
target triple = "x86_64-unknown-linux-gnu"

%"class.google::protobuf::compiler::SourceTreeDescriptorDatabase" = type { %"class.google::protobuf::DescriptorDatabase", ptr, ptr, ptr, i8, %"class.google::protobuf::compiler::SourceLocationTable", %"class.google::protobuf::compiler::SourceTreeDescriptorDatabase::ValidationErrorCollector" }
%"class.google::protobuf::DescriptorDatabase" = type { ptr }
%"class.google::protobuf::compiler::SourceLocationTable" = type { %"class.absl::lts_20230802::flat_hash_map", %"class.absl::lts_20230802::flat_hash_map.7" }
%"class.absl::lts_20230802::flat_hash_map" = type { %"class.absl::lts_20230802::container_internal::raw_hash_map" }
%"class.absl::lts_20230802::container_internal::raw_hash_map" = type { %"class.absl::lts_20230802::container_internal::raw_hash_set" }
%"class.absl::lts_20230802::container_internal::raw_hash_set" = type { %"class.absl::lts_20230802::container_internal::CompressedTuple" }
%"class.absl::lts_20230802::container_internal::CompressedTuple" = type { %"struct.absl::lts_20230802::container_internal::internal_compressed_tuple::CompressedTupleImpl" }
%"struct.absl::lts_20230802::container_internal::internal_compressed_tuple::CompressedTupleImpl" = type { %"struct.absl::lts_20230802::container_internal::internal_compressed_tuple::Storage" }
%"struct.absl::lts_20230802::container_internal::internal_compressed_tuple::Storage" = type { %"class.absl::lts_20230802::container_internal::CommonFields" }
%"class.absl::lts_20230802::container_internal::CommonFields" = type { ptr, ptr, i64, %"class.absl::lts_20230802::container_internal::CompressedTuple.0" }
%"class.absl::lts_20230802::container_internal::CompressedTuple.0" = type { %"struct.absl::lts_20230802::container_internal::internal_compressed_tuple::CompressedTupleImpl.1" }
%"struct.absl::lts_20230802::container_internal::internal_compressed_tuple::CompressedTupleImpl.1" = type { %"struct.absl::lts_20230802::container_internal::internal_compressed_tuple::Storage.2" }
%"struct.absl::lts_20230802::container_internal::internal_compressed_tuple::Storage.2" = type { i64 }
%"class.absl::lts_20230802::flat_hash_map.7" = type { %"class.absl::lts_20230802::container_internal::raw_hash_map.8" }
%"class.absl::lts_20230802::container_internal::raw_hash_map.8" = type { %"class.absl::lts_20230802::container_internal::raw_hash_set.9" }
%"class.absl::lts_20230802::container_internal::raw_hash_set.9" = type { %"class.absl::lts_20230802::container_internal::CompressedTuple.10" }
%"class.absl::lts_20230802::container_internal::CompressedTuple.10" = type { %"struct.absl::lts_20230802::container_internal::internal_compressed_tuple::CompressedTupleImpl.11" }
%"struct.absl::lts_20230802::container_internal::internal_compressed_tuple::CompressedTupleImpl.11" = type { %"struct.absl::lts_20230802::container_internal::internal_compressed_tuple::Storage" }
%"class.google::protobuf::compiler::SourceTreeDescriptorDatabase::ValidationErrorCollector" = type { %"class.google::protobuf::DescriptorPool::ErrorCollector", ptr }
%"class.google::protobuf::DescriptorPool::ErrorCollector" = type { ptr }

@_ZN6google8protobuf8compiler28SourceTreeDescriptorDatabase24ValidationErrorCollectorD1Ev = unnamed_addr alias void (ptr), ptr @_ZN6google8protobuf8compiler28SourceTreeDescriptorDatabase24ValidationErrorCollectorD2Ev

; Function Attrs: mustprogress nounwind uwtable
define void @_ZN6google8protobuf8compiler28SourceTreeDescriptorDatabaseD2Ev(ptr noundef nonnull align 8 dereferenceable(120) %this) unnamed_addr #4 align 2 {
entry:
  %this.addr = alloca ptr, align 8
  store ptr %this, ptr %this.addr, align 8
  %this1 = load ptr, ptr %this.addr, align 8
  store ptr getelementptr inbounds ({ [9 x ptr] }, ptr @_ZTVN6google8protobuf8compiler28SourceTreeDescriptorDatabaseE, i32 0, i32 0, i32 2), ptr %this1, align 8
  %validation_error_collector_ = getelementptr inbounds %"class.google::protobuf::compiler::SourceTreeDescriptorDatabase", ptr %this1, i32 0, i32 6
  call void @_ZN6google8protobuf8compiler28SourceTreeDescriptorDatabase24ValidationErrorCollectorD1Ev(ptr noundef nonnull align 8 dereferenceable(16) %validation_error_collector_) #3
  %source_locations_ = getelementptr inbounds %"class.google::protobuf::compiler::SourceTreeDescriptorDatabase", ptr %this1, i32 0, i32 5
  call void @_ZN6google8protobuf8compiler19SourceLocationTableD1Ev(ptr noundef nonnull align 8 dereferenceable(64) %source_locations_) #3
  call void @_ZN6google8protobuf18DescriptorDatabaseD2Ev(ptr noundef nonnull align 8 dereferenceable(8) %this1) #3
  ret void
}