; Function Attrs: mustprogress nounwind uwtable
define void @_ZN6google8protobuf8compiler28SourceTreeDescriptorDatabaseD2Ev(ptr noundef nonnull align 8 dereferenceable(120) %this) unnamed_addr #7 align 2 {
entry:
  store ptr getelementptr inbounds ({ [9 x ptr] }, ptr @_ZTVN6google8protobuf8compiler28SourceTreeDescriptorDatabaseE, i64 0, i32 0, i64 2), ptr %this, align 8
  %validation_error_collector_ = getelementptr inbounds i8, ptr %this, i64 104
  tail call void @_ZN6google8protobuf8compiler28SourceTreeDescriptorDatabase24ValidationErrorCollectorD1Ev(ptr noundef nonnull align 8 dereferenceable(16) %validation_error_collector_) #25
  %source_locations_ = getelementptr inbounds i8, ptr %this, i64 40
  tail call void @_ZN6google8protobuf8compiler19SourceLocationTableD1Ev(ptr noundef nonnull align 8 dereferenceable(64) %source_locations_) #25
  tail call void @_ZN6google8protobuf18DescriptorDatabaseD2Ev(ptr noundef nonnull align 8 dereferenceable(8) %this) #25
  ret void
}